target datalayout = "e-m:e-p270:32:32-p271:32:32-p272:64:64-i64:64-i128:128-f80:128-n8:16:32:64-S128"
target triple = "x86_64-pc-linux-gnu"

%struct.MpegEncContext = type { ptr, i32, i32, i32, [12 x i32], i32, %struct.ScanTable, %struct.ScanTable, [64 x i8], [64 x i8], ptr, ptr, i32, i32, i32, i32, i32, i32, i32, i32, i32, i32, i32, i32, i32, i32, i32, i32, i32, i32, i32, i32, i64, i64, ptr, %struct.BufferPoolContext, i32, i32, %union.anon, i32, %struct.MPVWorkPicture, %struct.MPVWorkPicture, %struct.MPVWorkPicture, i32, [3 x i32], ptr, [3 x ptr], ptr, ptr, ptr, ptr, ptr, ptr, [3 x ptr], i32, ptr, ptr, ptr, ptr, %struct.ScratchpadContext, i32, i32, i32, i32, i32, i32, %struct.BlockDSPContext, %struct.H264ChromaContext, %struct.HpelDSPContext, %struct.IDCTDSPContext, %struct.QpelDSPContext, %struct.VideoDSPContext, %struct.H263DSPContext, ptr, [2 x [2 x ptr]], i32, i32, [2 x [4 x [2 x i32]]], [2 x [2 x i32]], [2 x [2 x [2 x i32]]], [2 x [64 x i16]], i32, i32, i32, i32, i32, [6 x i32], [6 x i32], [3 x ptr], ptr, [64 x i16], [64 x i16], [64 x i16], [64 x i16], i32, i32, %struct.GetBitContext, i32, i32, i32, i32, i32, i32, i32, i32, i32, i32, i32, i32, i32, i32, i32, i64, i64, i16, i16, i16, i16, i32, i32, i32, i32, i32, i32, i32, i32, i32, [3 x i32], i32, i32, i32, i32, i32, i32, %struct.GetBitContext, i32, [2 x [2 x i32]], i32, i32, i32, i32, i32, i32, i32, i32, i32, i32, i32, i32, i32, i32, [2 x i32], i32, i32, ptr, ptr, ptr, ptr, ptr, i32, i32, %struct.ERContext }
%struct.ScanTable = type { ptr, [64 x i8], [64 x i8] }
%struct.BufferPoolContext = type { ptr, ptr, ptr, ptr, ptr, i32, i32, i32 }
%union.anon = type { [32 x ptr] }
%struct.MPVWorkPicture = type { [3 x ptr], [3 x i64], ptr, ptr, [2 x ptr], ptr, ptr, [2 x ptr], i32 }
%struct.ScratchpadContext = type { ptr, ptr, %union.anon.0, i32 }
%union.anon.0 = type { ptr }
%struct.BlockDSPContext = type { ptr, ptr, [2 x ptr] }
%struct.H264ChromaContext = type { [4 x ptr], [4 x ptr] }
%struct.HpelDSPContext = type { [4 x [4 x ptr]], [4 x [4 x ptr]], [4 x [4 x ptr]], [4 x ptr] }
%struct.IDCTDSPContext = type { ptr, ptr, ptr, ptr, ptr, ptr, [64 x i8], i32, i32 }
%struct.QpelDSPContext = type { [2 x [16 x ptr]], [2 x [16 x ptr]], [2 x [16 x ptr]] }
%struct.VideoDSPContext = type { ptr, ptr }
%struct.H263DSPContext = type { ptr, ptr }
%struct.GetBitContext = type { ptr, ptr, i32, i32, i32 }
%struct.ERContext = type { ptr, ptr, i32, ptr, i32, i32, i32, i64, i64, i32, i32, ptr, ptr, [3 x ptr], ptr, ptr, [2 x [4 x [2 x i32]]], %struct.ERPicture, %struct.ERPicture, %struct.ERPicture, [2 x ptr], [2 x ptr], i16, i16, i32, i32, ptr, ptr }
%struct.ERPicture = type { ptr, ptr, ptr, [2 x ptr], [2 x ptr], ptr, i32 }
%struct.AVCodecContext = type { ptr, i32, i32, ptr, i32, i32, ptr, ptr, ptr, i64, i32, i32, ptr, i32, %struct.AVRational, %struct.AVRational, %struct.AVRational, i32, i32, i32, i32, i32, %struct.AVRational, i32, i32, i32, i32, i32, i32, i32, i32, i32, i32, i32, ptr, ptr, i32, float, float, float, float, float, float, float, float, float, i32, i32, i32, i32, i32, i32, i32, i32, i32, i32, i32, i32, ptr, ptr, ptr, i32, i32, i32, i32, i32, i32, i32, i32, i32, i32, %struct.AVChannelLayout, i32, i32, i32, i32, i32, i32, i32, i32, ptr, i32, i32, i32, float, float, i32, i32, i32, i32, i32, ptr, i64, i64, float, float, i32, i32, ptr, ptr, i32, i32, i32, i32, i32, ptr, ptr, ptr, ptr, i32, i32, [8 x i64], i32, i32, i32, i32, i32, i32, i32, ptr, ptr, i32, i32, i32, i32, i32, i32, i32, i32, i32, i32, ptr, ptr, i32, i32, ptr, ptr, ptr, ptr, i32, i32, i64, i32, i32, i64, ptr, i64, ptr, i32, ptr, i32 }
%struct.AVRational = type { i32, i32 }
%struct.AVChannelLayout = type { i32, i32, %union.anon.1, ptr }
%union.anon.1 = type { i64 }
%struct.MPVPicture = type { ptr, ptr, ptr, [2 x ptr], [2 x ptr], ptr, ptr, ptr, [2 x ptr], ptr, i32, i32, i32, i32, i32, i32, i32, i32, i32, i32, %struct.ThreadProgress }
%struct.ThreadProgress = type { i32, i32, %union.pthread_mutex_t, %union.pthread_cond_t }
%union.pthread_mutex_t = type { %struct.__pthread_mutex_s }
%struct.__pthread_mutex_s = type { i32, i32, i32, i32, i32, i16, i16, %struct.__pthread_internal_list }
%struct.__pthread_internal_list = type { ptr, ptr }
%union.pthread_cond_t = type { %struct.__pthread_cond_s }
%struct.__pthread_cond_s = type { %union.__atomic_wide_counter, %union.__atomic_wide_counter, [2 x i32], [2 x i32], i32, i32, [2 x i32] }
%union.__atomic_wide_counter = type { i64 }
%struct.AVFrame = type { [8 x ptr], [8 x i32], ptr, i32, i32, i32, i32, i32, %struct.AVRational, i64, i64, %struct.AVRational, i32, ptr, i32, i32, [8 x ptr], ptr, i32, ptr, i32, i32, i32, i32, i32, i32, i32, i64, ptr, i32, ptr, ptr, i64, i64, i64, i64, ptr, %struct.AVChannelLayout, i64 }

@.str = private unnamed_addr constant [30 x i8] c"Assertion %s failed at %s:%d\0A\00", align 1
@.str.2 = private unnamed_addr constant [27 x i8] c"libavcodec/mpegvideo_dec.c\00", align 1
@.str.3 = private unnamed_addr constant [43 x i8] c"allocating dummy last picture for B frame\0A\00", align 1
@.str.4 = private unnamed_addr constant [37 x i8] c"warning: first frame is no keyframe\0A\00", align 1
@.str.5 = private unnamed_addr constant [85 x i8] c"s->pict_type == AV_PICTURE_TYPE_I || (s->last_pic.ptr && s->last_pic.ptr->f->buf[0])\00", align 1

; Function Attrs: nounwind uwtable
define i32 @ff_mpv_alloc_dummy_frames(ptr noundef %0) #3 {
  %2 = alloca i32, align 4
  %3 = alloca ptr, align 8
  %4 = alloca ptr, align 8
  %5 = alloca i32, align 4
  %6 = alloca i32, align 4
  %7 = alloca i32, align 4
  store ptr %0, ptr %3, align 8, !tbaa !4
  call void @llvm.lifetime.start.p0(i64 8, ptr %4) #11
  %8 = load ptr, ptr %3, align 8, !tbaa !4
  %9 = getelementptr inbounds nuw %struct.MpegEncContext, ptr %8, i32 0, i32 10
  %10 = load ptr, ptr %9, align 8, !tbaa !11
  store ptr %10, ptr %4, align 8, !tbaa !9
  call void @llvm.lifetime.start.p0(i64 4, ptr %5) #11
  %11 = load ptr, ptr %3, align 8, !tbaa !4
  %12 = getelementptr inbounds nuw %struct.MpegEncContext, ptr %11, i32 0, i32 40
  %13 = getelementptr inbounds nuw %struct.MPVWorkPicture, ptr %12, i32 0, i32 2
  %14 = load ptr, ptr %13, align 8, !tbaa !82
  %15 = icmp ne ptr %14, null
  br i1 %15, label %87, label %16

16:                                               ; preds = %1
  %17 = load ptr, ptr %3, align 8, !tbaa !4
  %18 = getelementptr inbounds nuw %struct.MpegEncContext, ptr %17, i32 0, i32 62
  %19 = load i32, ptr %18, align 8, !tbaa !83
  %20 = icmp ne i32 %19, 1
  br i1 %20, label %21, label %87

21:                                               ; preds = %16
  %22 = load ptr, ptr %3, align 8, !tbaa !4
  %23 = getelementptr inbounds nuw %struct.MpegEncContext, ptr %22, i32 0, i32 62
  %24 = load i32, ptr %23, align 8, !tbaa !83
  %25 = icmp eq i32 %24, 3
  br i1 %25, label %26, label %34

26:                                               ; preds = %21
  %27 = load ptr, ptr %3, align 8, !tbaa !4
  %28 = getelementptr inbounds nuw %struct.MpegEncContext, ptr %27, i32 0, i32 41
  %29 = getelementptr inbounds nuw %struct.MPVWorkPicture, ptr %28, i32 0, i32 2
  %30 = load ptr, ptr %29, align 8, !tbaa !84
  %31 = icmp ne ptr %30, null
  br i1 %31, label %32, label %34

32:                                               ; preds = %26
  %33 = load ptr, ptr %4, align 8, !tbaa !9
  call void (ptr, i32, ptr, ...) @av_log(ptr noundef %33, i32 noundef 48, ptr noundef @.str.3)
  br label %52

34:                                               ; preds = %26, %21
  %35 = load ptr, ptr %3, align 8, !tbaa !4
  %36 = getelementptr inbounds nuw %struct.MpegEncContext, ptr %35, i32 0, i32 19
  %37 = load i32, ptr %36, align 4, !tbaa !62
  %38 = icmp ne i32 %37, 3
  br i1 %38, label %39, label %51

39:                                               ; preds = %34
  %40 = load ptr, ptr %3, align 8, !tbaa !4
  %41 = getelementptr inbounds nuw %struct.MpegEncContext, ptr %40, i32 0, i32 137
  %42 = load i32, ptr %41, align 4, !tbaa !85
  %43 = icmp eq i32 %42, 3
  br i1 %43, label %49, label %44

44:                                               ; preds = %39
  %45 = load ptr, ptr %3, align 8, !tbaa !4
  %46 = getelementptr inbounds nuw %struct.MpegEncContext, ptr %45, i32 0, i32 153
  %47 = load i32, ptr %46, align 8, !tbaa !86
  %48 = icmp ne i32 %47, 0
  br i1 %48, label %49, label %51

49:                                               ; preds = %44, %39
  %50 = load ptr, ptr %4, align 8, !tbaa !9
  call void (ptr, i32, ptr, ...) @av_log(ptr noundef %50, i32 noundef 16, ptr noundef @.str.4)
  br label %51

51:                                               ; preds = %49, %44, %34
  br label %52

52:                                               ; preds = %51, %32
  %53 = load ptr, ptr %3, align 8, !tbaa !4
  %54 = load ptr, ptr %3, align 8, !tbaa !4
  %55 = getelementptr inbounds nuw %struct.MpegEncContext, ptr %54, i32 0, i32 40
  %56 = call i32 @alloc_dummy_frame(ptr noundef %53, ptr noundef %55) #13
  store i32 %56, ptr %5, align 4, !tbaa !68
  %57 = load i32, ptr %5, align 4, !tbaa !68
  %58 = icmp slt i32 %57, 0
  br i1 %58, label %59, label %61

59:                                               ; preds = %52
  %60 = load i32, ptr %5, align 4, !tbaa !68
  store i32 %60, ptr %2, align 4
  store i32 1, ptr %6, align 4
  br label %135

61:                                               ; preds = %52
  %62 = load ptr, ptr %4, align 8, !tbaa !9
  %63 = getelementptr inbounds nuw %struct.AVCodecContext, ptr %62, i32 0, i32 105
  %64 = load ptr, ptr %63, align 8, !tbaa !87
  %65 = icmp ne ptr %64, null
  br i1 %65, label %86, label %66

66:                                               ; preds = %61
  call void @llvm.lifetime.start.p0(i64 4, ptr %7) #11
  %67 = load ptr, ptr %3, align 8, !tbaa !4
  %68 = getelementptr inbounds nuw %struct.MpegEncContext, ptr %67, i32 0, i32 19
  %69 = load i32, ptr %68, align 4, !tbaa !62
  %70 = icmp eq i32 %69, 21
  br i1 %70, label %76, label %71

71:                                               ; preds = %66
  %72 = load ptr, ptr %3, align 8, !tbaa !4
  %73 = getelementptr inbounds nuw %struct.MpegEncContext, ptr %72, i32 0, i32 19
  %74 = load i32, ptr %73, align 4, !tbaa !62
  %75 = icmp eq i32 %74, 4
  br label %76

76:                                               ; preds = %71, %66
  %77 = phi i1 [ true, %66 ], [ %75, %71 ]
  %78 = select i1 %77, i32 16, i32 128
  store i32 %78, ptr %7, align 4, !tbaa !68
  %79 = load ptr, ptr %3, align 8, !tbaa !4
  %80 = getelementptr inbounds nuw %struct.MpegEncContext, ptr %79, i32 0, i32 40
  %81 = getelementptr inbounds nuw %struct.MPVWorkPicture, ptr %80, i32 0, i32 2
  %82 = load ptr, ptr %81, align 8, !tbaa !82
  %83 = getelementptr inbounds nuw %struct.MPVPicture, ptr %82, i32 0, i32 0
  %84 = load ptr, ptr %83, align 8, !tbaa !88
  %85 = load i32, ptr %7, align 4, !tbaa !68
  call void @color_frame(ptr noundef %84, i32 noundef %85)
  call void @llvm.lifetime.end.p0(i64 4, ptr %7) #11
  br label %86

86:                                               ; preds = %76, %61
  br label %87

87:                                               ; preds = %86, %16, %1
  %88 = load ptr, ptr %3, align 8, !tbaa !4
  %89 = getelementptr inbounds nuw %struct.MpegEncContext, ptr %88, i32 0, i32 41
  %90 = getelementptr inbounds nuw %struct.MPVWorkPicture, ptr %89, i32 0, i32 2
  %91 = load ptr, ptr %90, align 8, !tbaa !84
  %92 = icmp ne ptr %91, null
  br i1 %92, label %108, label %93

93:                                               ; preds = %87
  %94 = load ptr, ptr %3, align 8, !tbaa !4
  %95 = getelementptr inbounds nuw %struct.MpegEncContext, ptr %94, i32 0, i32 62
  %96 = load i32, ptr %95, align 8, !tbaa !83
  %97 = icmp eq i32 %96, 3
  br i1 %97, label %98, label %108

98:                                               ; preds = %93
  %99 = load ptr, ptr %3, align 8, !tbaa !4
  %100 = load ptr, ptr %3, align 8, !tbaa !4
  %101 = getelementptr inbounds nuw %struct.MpegEncContext, ptr %100, i32 0, i32 41
  %102 = call i32 @alloc_dummy_frame(ptr noundef %99, ptr noundef %101) #13
  store i32 %102, ptr %5, align 4, !tbaa !68
  %103 = load i32, ptr %5, align 4, !tbaa !68
  %104 = icmp slt i32 %103, 0
  br i1 %104, label %105, label %107

105:                                              ; preds = %98
  %106 = load i32, ptr %5, align 4, !tbaa !68
  store i32 %106, ptr %2, align 4
  store i32 1, ptr %6, align 4
  br label %135

107:                                              ; preds = %98
  br label %108

108:                                              ; preds = %107, %93, %87
  br label %109

109:                                              ; preds = %108
  %110 = load ptr, ptr %3, align 8, !tbaa !4
  %111 = getelementptr inbounds nuw %struct.MpegEncContext, ptr %110, i32 0, i32 62
  %112 = load i32, ptr %111, align 8, !tbaa !83
  %113 = icmp eq i32 %112, 1
  br i1 %113, label %132, label %114

114:                                              ; preds = %109
  %115 = load ptr, ptr %3, align 8, !tbaa !4
  %116 = getelementptr inbounds nuw %struct.MpegEncContext, ptr %115, i32 0, i32 40
  %117 = getelementptr inbounds nuw %struct.MPVWorkPicture, ptr %116, i32 0, i32 2
  %118 = load ptr, ptr %117, align 8, !tbaa !82
  %119 = icmp ne ptr %118, null
  br i1 %119, label %120, label %131

120:                                              ; preds = %114
  %121 = load ptr, ptr %3, align 8, !tbaa !4
  %122 = getelementptr inbounds nuw %struct.MpegEncContext, ptr %121, i32 0, i32 40
  %123 = getelementptr inbounds nuw %struct.MPVWorkPicture, ptr %122, i32 0, i32 2
  %124 = load ptr, ptr %123, align 8, !tbaa !82
  %125 = getelementptr inbounds nuw %struct.MPVPicture, ptr %124, i32 0, i32 0
  %126 = load ptr, ptr %125, align 8, !tbaa !88
  %127 = getelementptr inbounds nuw %struct.AVFrame, ptr %126, i32 0, i32 16
  %128 = getelementptr inbounds [8 x ptr], ptr %127, i64 0, i64 0
  %129 = load ptr, ptr %128, align 8, !tbaa !91
  %130 = icmp ne ptr %129, null
  br i1 %130, label %132, label %131

131:                                              ; preds = %120, %114
  call void (ptr, i32, ptr, ...) @av_log(ptr noundef null, i32 noundef 0, ptr noundef @.str, ptr noundef @.str.5, ptr noundef @.str.2, i32 noundef 300)
  call void @abort() #12
  unreachable

132:                                              ; preds = %120, %109
  br label %133

133:                                              ; preds = %132
  br label %134

134:                                              ; preds = %133
  store i32 0, ptr %2, align 4
  store i32 1, ptr %6, align 4
  br label %135

135:                                              ; preds = %134, %105, %59
  call void @llvm.lifetime.end.p0(i64 4, ptr %5) #11
  call void @llvm.lifetime.end.p0(i64 8, ptr %4) #11
  %136 = load i32, ptr %2, align 4
  ret i32 %136
}