; Function Attrs: nounwind uwtable
define range(i32 -2147483648, 1) i32 @ff_mpv_alloc_dummy_frames(ptr noundef %0) local_unnamed_addr #3 {
  %2 = getelementptr inbounds nuw i8, ptr %0, i64 472
  %3 = load ptr, ptr %2, align 8, !tbaa !4
  %4 = getelementptr inbounds nuw i8, ptr %0, i64 920
  %5 = getelementptr inbounds nuw i8, ptr %0, i64 968
  %6 = load ptr, ptr %5, align 8, !tbaa !76
  %.not = icmp eq ptr %6, null
  br i1 %.not, label %7, label %40

7:                                                ; preds = %1
  %8 = getelementptr inbounds nuw i8, ptr %0, i64 1480
  %9 = load i32, ptr %8, align 8, !tbaa !77
  switch i32 %9, label %14 [
    i32 1, label %40
    i32 3, label %10
  ]

10:                                               ; preds = %7
  %11 = getelementptr inbounds nuw i8, ptr %0, i64 1088
  %12 = load ptr, ptr %11, align 8, !tbaa !78
  %.not34 = icmp eq ptr %12, null
  br i1 %.not34, label %14, label %13

13:                                               ; preds = %10
  tail call void (ptr, i32, ptr, ...) @av_log(ptr noundef %3, i32 noundef 48, ptr noundef nonnull @.str.3) #10
  br label %25

14:                                               ; preds = %7, %10
  %15 = getelementptr inbounds nuw i8, ptr %0, i64 516
  %16 = load i32, ptr %15, align 4, !tbaa !59
  %.not35 = icmp eq i32 %16, 3
  br i1 %.not35, label %25, label %17

17:                                               ; preds = %14
  %18 = getelementptr inbounds nuw i8, ptr %0, i64 4212
  %19 = load i32, ptr %18, align 4, !tbaa !79
  %20 = icmp eq i32 %19, 3
  br i1 %20, label %24, label %21

21:                                               ; preds = %17
  %22 = getelementptr inbounds nuw i8, ptr %0, i64 4280
  %23 = load i32, ptr %22, align 8, !tbaa !80
  %.not36 = icmp eq i32 %23, 0
  br i1 %.not36, label %25, label %24

24:                                               ; preds = %21, %17
  tail call void (ptr, i32, ptr, ...) @av_log(ptr noundef %3, i32 noundef 16, ptr noundef nonnull @.str.4) #10
  br label %25

25:                                               ; preds = %14, %21, %24, %13
  %26 = tail call fastcc i32 @alloc_dummy_frame(ptr noundef nonnull %0, ptr noundef nonnull %4) #12
  %27 = icmp slt i32 %26, 0
  br i1 %27, label %62, label %28

28:                                               ; preds = %25
  %29 = getelementptr inbounds nuw i8, ptr %3, i64 536
  %30 = load ptr, ptr %29, align 8, !tbaa !81
  %.not37 = icmp eq ptr %30, null
  br i1 %.not37, label %31, label %40

31:                                               ; preds = %28
  %32 = getelementptr inbounds nuw i8, ptr %0, i64 516
  %33 = load i32, ptr %32, align 4, !tbaa !59
  %34 = icmp eq i32 %33, 21
  %35 = icmp eq i32 %33, 4
  %36 = or i1 %34, %35
  %37 = select i1 %36, i32 16, i32 128
  %38 = load ptr, ptr %5, align 8, !tbaa !76
  %39 = load ptr, ptr %38, align 8, !tbaa !82
  tail call fastcc void @color_frame(ptr noundef %39, i32 noundef %37)
  br label %40

40:                                               ; preds = %7, %28, %31, %1
  %41 = getelementptr inbounds nuw i8, ptr %0, i64 1040
  %42 = getelementptr inbounds nuw i8, ptr %0, i64 1088
  %43 = load ptr, ptr %42, align 8, !tbaa !78
  %.not38 = icmp eq ptr %43, null
  br i1 %.not38, label %44, label %51

44:                                               ; preds = %40
  %45 = getelementptr inbounds nuw i8, ptr %0, i64 1480
  %46 = load i32, ptr %45, align 8, !tbaa !77
  %47 = icmp eq i32 %46, 3
  br i1 %47, label %48, label %51

48:                                               ; preds = %44
  %49 = tail call fastcc i32 @alloc_dummy_frame(ptr noundef nonnull %0, ptr noundef nonnull %41) #12
  %50 = icmp slt i32 %49, 0
  br i1 %50, label %62, label %51

51:                                               ; preds = %40, %44, %48
  %52 = getelementptr inbounds nuw i8, ptr %0, i64 1480
  %53 = load i32, ptr %52, align 8, !tbaa !77
  %54 = icmp eq i32 %53, 1
  br i1 %54, label %62, label %55

55:                                               ; preds = %51
  %56 = load ptr, ptr %5, align 8, !tbaa !76
  %.not39 = icmp eq ptr %56, null
  br i1 %.not39, label %61, label %57

57:                                               ; preds = %55
  %58 = load ptr, ptr %56, align 8, !tbaa !82
  %59 = getelementptr inbounds nuw i8, ptr %58, i64 184
  %60 = load ptr, ptr %59, align 8, !tbaa !85
  %.not40 = icmp eq ptr %60, null
  br i1 %.not40, label %61, label %62

61:                                               ; preds = %57, %55
  tail call void (ptr, i32, ptr, ...) @av_log(ptr noundef null, i32 noundef 0, ptr noundef nonnull @.str, ptr noundef nonnull @.str.5, ptr noundef nonnull @.str.2, i32 noundef 300) #10
  tail call void @abort() #11
  unreachable

62:                                               ; preds = %51, %57, %48, %25
  %.0 = phi i32 [ %26, %25 ], [ %49, %48 ], [ 0, %57 ], [ 0, %51 ]
  ret i32 %.0
}